; ModuleID = '28/1895.c'
source_filename = "28/1895.c"
target datalayout = "e-m:e-p270:32:32-p271:32:32-p272:64:64-i64:64-f80:128-n8:16:32:64-S128"
target triple = "x86_64-pc-linux-gnu"

@.str = private unnamed_addr constant [4 x i8] c"%d,\00", align 1
@.str.1 = private unnamed_addr constant [3 x i8] c"%d\00", align 1

; Function Attrs: noinline nounwind uwtable
define dso_local i32 @main() #0 {
  %1 = alloca i32, align 4
  %2 = alloca [1000 x i8], align 16
  %3 = alloca [1000 x i8], align 16
  %4 = alloca i32, align 4
  %5 = alloca i32, align 4
  %6 = alloca i32, align 4
  %7 = alloca i32, align 4
  %8 = alloca i32, align 4
  %9 = alloca i32, align 4
  store i32 0, i32* %1, align 4
  %10 = getelementptr inbounds [1000 x i8], [1000 x i8]* %2, i64 0, i64 0
  %11 = call i32 (i8*, ...) bitcast (i32 (...)* @gets to i32 (i8*, ...)*)(i8* %10)
  %12 = getelementptr inbounds [1000 x i8], [1000 x i8]* %2, i64 0, i64 0
  %13 = call i64 @strlen(i8* %12) #3
  %14 = trunc i64 %13 to i32
  store i32 %14, i32* %7, align 4
  store i32 0, i32* %8, align 4
  store i32 0, i32* %4, align 4
  br label %15

15:                                               ; preds = %44, %0
  %16 = load i32, i32* %4, align 4
  %17 = load i32, i32* %7, align 4
  %18 = icmp slt i32 %16, %17
  br i1 %18, label %19, label %47

19:                                               ; preds = %15
  %20 = load i32, i32* %4, align 4
  %21 = sext i32 %20 to i64
  %22 = getelementptr inbounds [1000 x i8], [1000 x i8]* %2, i64 0, i64 %21
  %23 = load i8, i8* %22, align 1
  %24 = sext i8 %23 to i32
  %25 = icmp eq i32 %24, 32
  br i1 %25, label %26, label %32

26:                                               ; preds = %19
  %27 = load i32, i32* %8, align 4
  %28 = icmp sgt i32 %27, 0
  br i1 %28, label %29, label %32

29:                                               ; preds = %26
  %30 = load i32, i32* %8, align 4
  %31 = call i32 (i8*, ...) @printf(i8* getelementptr inbounds ([4 x i8], [4 x i8]* @.str, i64 0, i64 0), i32 %30)
  store i32 0, i32* %8, align 4
  br label %43

32:                                               ; preds = %26, %19
  %33 = load i32, i32* %4, align 4
  %34 = sext i32 %33 to i64
  %35 = getelementptr inbounds [1000 x i8], [1000 x i8]* %2, i64 0, i64 %34
  %36 = load i8, i8* %35, align 1
  %37 = sext i8 %36 to i32
  %38 = icmp ne i32 %37, 32
  br i1 %38, label %39, label %42

39:                                               ; preds = %32
  %40 = load i32, i32* %8, align 4
  %41 = add nsw i32 %40, 1
  store i32 %41, i32* %8, align 4
  br label %42

42:                                               ; preds = %39, %32
  br label %43

43:                                               ; preds = %42, %29
  br label %44

44:                                               ; preds = %43
  %45 = load i32, i32* %4, align 4
  %46 = add nsw i32 %45, 1
  store i32 %46, i32* %4, align 4
  br label %15

47:                                               ; preds = %15
  %48 = load i32, i32* %8, align 4
  %49 = call i32 (i8*, ...) @printf(i8* getelementptr inbounds ([3 x i8], [3 x i8]* @.str.1, i64 0, i64 0), i32 %48)
  ret i32 0
}

declare dso_local i32 @gets(...) #1

; Function Attrs: nounwind readonly
declare dso_local i64 @strlen(i8*) #2

declare dso_local i32 @printf(i8*, ...) #1


!llvm.module.flags = !{!0}
!llvm.ident = !{!1}

!0 = !{i32 1, !"wchar_size", i32 4}
!1 = !{!"clang version 10.0.0-4ubuntu1 "}
